; Function Attrs: mustprogress uwtable
define void @_ZN5arrow10FutureImpl11AddCallbackENS_8internal6FnOnceIFvRKS0_EEENS_15CallbackOptionsE(ptr noundef nonnull align 8 dereferenceable(72) %0, ptr noundef captures(none) %1, i32 %2, ptr %3) local_unnamed_addr #0 align 2 personality ptr @__gxx_personality_v0 {
  %5 = alloca %"class.arrow::internal::FnOnce", align 8
  %6 = load i64, ptr %1, align 8, !tbaa !31
  store i64 %6, ptr %5, align 8, !tbaa !31
  store ptr null, ptr %1, align 8, !tbaa !31
  invoke void @_ZN5arrow18ConcreteFutureImpl11AddCallbackENS_8internal6FnOnceIFvRKNS_10FutureImplEEEENS_15CallbackOptionsE(ptr noundef nonnull align 8 dereferenceable(160) %0, ptr noundef nonnull %5, i32 %2, ptr %3)
          to label %7 unwind label %12

7:                                                ; preds = %4
  %8 = load ptr, ptr %5, align 8, !tbaa !31
  %.not.i.i = icmp eq ptr %8, null
  br i1 %.not.i.i, label %_ZN5arrow8internal6FnOnceIFvRKNS_10FutureImplEEED2Ev.exit, label %_ZNKSt14default_deleteIN5arrow8internal6FnOnceIFvRKNS0_10FutureImplEEE4ImplEEclEPS8_.exit.i.i

_ZNKSt14default_deleteIN5arrow8internal6FnOnceIFvRKNS0_10FutureImplEEE4ImplEEclEPS8_.exit.i.i: ; preds = %7
  %9 = load ptr, ptr %8, align 8, !tbaa !6
  %10 = getelementptr inbounds nuw i8, ptr %9, i64 8
  %11 = load ptr, ptr %10, align 8
  call void %11(ptr noundef nonnull align 8 dereferenceable(8) %8) #24
  br label %_ZN5arrow8internal6FnOnceIFvRKNS_10FutureImplEEED2Ev.exit

_ZN5arrow8internal6FnOnceIFvRKNS_10FutureImplEEED2Ev.exit: ; preds = %7, %_ZNKSt14default_deleteIN5arrow8internal6FnOnceIFvRKNS0_10FutureImplEEE4ImplEEclEPS8_.exit.i.i
  ret void

12:                                               ; preds = %4
  %13 = landingpad { ptr, i32 }
          cleanup
  %14 = load ptr, ptr %5, align 8, !tbaa !31
  %.not.i.i5 = icmp eq ptr %14, null
  br i1 %.not.i.i5, label %_ZN5arrow8internal6FnOnceIFvRKNS_10FutureImplEEED2Ev.exit7, label %_ZNKSt14default_deleteIN5arrow8internal6FnOnceIFvRKNS0_10FutureImplEEE4ImplEEclEPS8_.exit.i.i6

_ZNKSt14default_deleteIN5arrow8internal6FnOnceIFvRKNS0_10FutureImplEEE4ImplEEclEPS8_.exit.i.i6: ; preds = %12
  %15 = load ptr, ptr %14, align 8, !tbaa !6
  %16 = getelementptr inbounds nuw i8, ptr %15, i64 8
  %17 = load ptr, ptr %16, align 8
  call void %17(ptr noundef nonnull align 8 dereferenceable(8) %14) #24
  br label %_ZN5arrow8internal6FnOnceIFvRKNS_10FutureImplEEED2Ev.exit7

_ZN5arrow8internal6FnOnceIFvRKNS_10FutureImplEEED2Ev.exit7: ; preds = %12, %_ZNKSt14default_deleteIN5arrow8internal6FnOnceIFvRKNS0_10FutureImplEEE4ImplEEclEPS8_.exit.i.i6
  resume { ptr, i32 } %13
}